target datalayout = "e-m:e-p270:32:32-p271:32:32-p272:64:64-i64:64-i128:128-f80:128-n8:16:32:64-S128"
target triple = "x86_64-pc-linux-gnu"

; Function Attrs: nounwind uwtable
define internal ptr @handle_escdsw(i32 noundef %0, ptr noundef %1, i32 noundef %2, i32 noundef %3) #0 {
  %5 = alloca i32, align 4
  %6 = alloca ptr, align 8
  %7 = alloca i32, align 4
  %8 = alloca i32, align 4
  %9 = alloca i32, align 4
  %10 = alloca i32, align 4
  store i32 %0, ptr %5, align 4
  store ptr %1, ptr %6, align 8
  store i32 %2, ptr %7, align 4
  store i32 %3, ptr %8, align 4
  store i32 0, ptr %9, align 4
  store i32 16, ptr %10, align 4
  %11 = load i32, ptr %5, align 4
  switch i32 %11, label %18 [
    i32 6, label %12
    i32 7, label %13
    i32 8, label %14
    i32 9, label %15
    i32 10, label %16
    i32 11, label %17
  ]

12:                                               ; preds = %4
  store i32 15, ptr %10, align 4
  br label %13

13:                                               ; preds = %12, %4
  store i32 256, ptr %9, align 4
  br label %18

14:                                               ; preds = %4
  store i32 15, ptr %10, align 4
  br label %15

15:                                               ; preds = %14, %4
  store i32 512, ptr %9, align 4
  br label %18

16:                                               ; preds = %4
  store i32 15, ptr %10, align 4
  br label %17

17:                                               ; preds = %16, %4
  store i32 1024, ptr %9, align 4
  br label %18

18:                                               ; preds = %17, %15, %13, %4
  %19 = load i32, ptr %7, align 4
  %20 = and i32 %19, 131072
  %21 = icmp eq i32 %20, 0
  br i1 %21, label %27, label %22

22:                                               ; preds = %18
  %23 = load i32, ptr %8, align 4
  %24 = load i32, ptr %9, align 4
  %25 = and i32 %23, %24
  %26 = icmp ne i32 %25, 0
  br i1 %26, label %27, label %32

27:                                               ; preds = %22, %18
  %28 = load i32, ptr %5, align 4
  %29 = add i32 -2145910784, %28
  %30 = load ptr, ptr %6, align 8
  %31 = getelementptr inbounds i32, ptr %30, i32 1
  store ptr %31, ptr %6, align 8
  store i32 %29, ptr %30, align 4
  br label %48

32:                                               ; preds = %22
  %33 = load i32, ptr %10, align 4
  %34 = add i32 -2145910784, %33
  %35 = load ptr, ptr %6, align 8
  %36 = getelementptr inbounds i32, ptr %35, i32 1
  store ptr %36, ptr %6, align 8
  store i32 %34, ptr %35, align 4
  %37 = load i32, ptr %5, align 4
  switch i32 %37, label %47 [
    i32 7, label %38
    i32 6, label %38
    i32 9, label %41
    i32 8, label %41
    i32 11, label %44
    i32 10, label %44
  ]

38:                                               ; preds = %32, %32
  %39 = load ptr, ptr %6, align 8
  %40 = getelementptr inbounds i32, ptr %39, i32 1
  store ptr %40, ptr %6, align 8
  store i32 196621, ptr %39, align 4
  br label %47

41:                                               ; preds = %32, %32
  %42 = load ptr, ptr %6, align 8
  %43 = getelementptr inbounds i32, ptr %42, i32 1
  store ptr %43, ptr %6, align 8
  store i32 458752, ptr %42, align 4
  br label %47

44:                                               ; preds = %32, %32
  %45 = load ptr, ptr %6, align 8
  %46 = getelementptr inbounds i32, ptr %45, i32 1
  store ptr %46, ptr %6, align 8
  store i32 589824, ptr %45, align 4
  br label %47

47:                                               ; preds = %44, %41, %38, %32
  br label %48

48:                                               ; preds = %47, %27
  %49 = load ptr, ptr %6, align 8
  ret ptr %49
}