; Function Attrs: mustprogress nofree norecurse nosync nounwind willreturn memory(argmem: write) uwtable
define internal fastcc nonnull ptr @handle_escdsw(i32 noundef %0, ptr noundef writeonly %1, i32 noundef %2, i32 noundef %3) unnamed_addr #10 {
  %switch.tableidx = add i32 %0, -6
  %5 = icmp ult i32 %switch.tableidx, 6
  br i1 %5, label %switch.lookup, label %8

switch.lookup:                                    ; preds = %4
  %6 = zext nneg i32 %switch.tableidx to i64
  %switch.gep = getelementptr inbounds [6 x i32], ptr @switch.table.handle_escdsw, i64 0, i64 %6
  %switch.load = load i32, ptr %switch.gep, align 4
  %7 = zext nneg i32 %switch.tableidx to i64
  %switch.gep14 = getelementptr inbounds [6 x i32], ptr @switch.table.handle_escdsw.2, i64 0, i64 %7
  %switch.load15 = load i32, ptr %switch.gep14, align 4
  br label %8

8:                                                ; preds = %switch.lookup, %4
  %.012 = phi i32 [ 0, %4 ], [ %switch.load, %switch.lookup ]
  %.3 = phi i32 [ -2145910768, %4 ], [ %switch.load15, %switch.lookup ]
  %9 = and i32 %2, 131072
  %10 = icmp ne i32 %9, 0
  %11 = and i32 %.012, %3
  %.not = icmp eq i32 %11, 0
  %or.cond = and i1 %10, %.not
  br i1 %or.cond, label %15, label %12

12:                                               ; preds = %8
  %13 = add i32 %0, -2145910784
  %14 = getelementptr inbounds i8, ptr %1, i64 4
  store i32 %13, ptr %1, align 4
  br label %23

15:                                               ; preds = %8
  %16 = getelementptr inbounds i8, ptr %1, i64 4
  store i32 %.3, ptr %1, align 4
  switch i32 %0, label %23 [
    i32 7, label %17
    i32 6, label %17
    i32 9, label %19
    i32 8, label %19
    i32 11, label %21
    i32 10, label %21
  ]

17:                                               ; preds = %15, %15
  %18 = getelementptr inbounds i8, ptr %1, i64 8
  store i32 196621, ptr %16, align 4
  br label %23

19:                                               ; preds = %15, %15
  %20 = getelementptr inbounds i8, ptr %1, i64 8
  store i32 458752, ptr %16, align 4
  br label %23

21:                                               ; preds = %15, %15
  %22 = getelementptr inbounds i8, ptr %1, i64 8
  store i32 589824, ptr %16, align 4
  br label %23

23:                                               ; preds = %15, %17, %19, %21, %12
  %.013 = phi ptr [ %14, %12 ], [ %16, %15 ], [ %22, %21 ], [ %20, %19 ], [ %18, %17 ]
  ret ptr %.013
}